target datalayout = "e-m:e-p270:32:32-p271:32:32-p272:64:64-i64:64-i128:128-f80:128-n8:16:32:64-S128"
target triple = "x86_64-pc-linux-gnu"

%struct.vfio_irq_info = type { i32, i32, i32, i32 }
%struct.MemoryRegion = type { %struct.Object, i8, i8, i8, i8, i8, i8, i8, i8, i8, i8, ptr, ptr, ptr, ptr, ptr, ptr, i32, i128, i64, ptr, i64, i8, i8, i8, i8, ptr, i64, i32, %union.anon, %union.anon.0, %union.anon.1, ptr, i32, ptr, ptr, i8 }
%struct.Object = type { ptr, ptr, ptr, i32, ptr }
%union.anon = type { %struct.QTailQLink }
%struct.QTailQLink = type { ptr, ptr }
%union.anon.0 = type { %struct.QTailQLink }
%union.anon.1 = type { %struct.QTailQLink }
%struct.VFIOPCIDevice = type { %struct.PCIDevice, %struct.VFIODevice, %struct.VFIOINTx, i32, ptr, i64, i32, i64, ptr, i32, ptr, ptr, i32, i32, [6 x %struct.VFIOBAR], ptr, ptr, %struct.PCIHostDeviceAddress, %struct.QemuUUID, %struct.EventNotifier, %struct.EventNotifier, ptr, i32, i32, i32, i32, i32, i32, i32, i32, i32, i32, i32, i8, i8, i8, i8, i8, i8, i8, i8, i8, i8, i8, i8, i8, i8, i32, i8, i8, i8, ptr, %struct.Notifier }
%struct.PCIDevice = type { %struct.DeviceState, i8, i8, ptr, ptr, ptr, ptr, ptr, i32, %struct.PCIReqIDCache, [64 x i8], [7 x %struct.PCIIORegion], %struct.AddressSpace, %struct.MemoryRegion, %struct.MemoryRegion, ptr, ptr, [3 x ptr], i8, i8, i32, i8, i32, ptr, ptr, ptr, ptr, ptr, ptr, %struct.MemoryRegion, %struct.MemoryRegion, %struct.MemoryRegion, ptr, i8, i32, i8, %struct.PCIExpressDevice, ptr, ptr, i32, i8, %struct.MemoryRegion, i32, ptr, ptr, ptr, ptr, i16, %struct.DOECap, ptr, i32, i32 }
%struct.DeviceState = type { %struct.Object, ptr, ptr, i8, i8, i64, i32, i8, ptr, %struct.NamedGPIOListHead, %struct.NamedClockListHead, %struct.BusStateHead, i32, i32, i32, %struct.ResettableState, ptr, %struct.MemReentrancyGuard }
%struct.NamedGPIOListHead = type { ptr }
%struct.NamedClockListHead = type { ptr }
%struct.BusStateHead = type { ptr }
%struct.ResettableState = type { i32, i8, i8 }
%struct.MemReentrancyGuard = type { i8 }
%struct.PCIReqIDCache = type { ptr, i32 }
%struct.PCIIORegion = type { i64, i64, i8, ptr, ptr }
%struct.AddressSpace = type { %struct.rcu_head, ptr, ptr, ptr, i32, i32, ptr, %union.anon.4, %union.anon.5, i64, i64, %struct.QemuMutex, %struct.anon.6 }
%struct.rcu_head = type { ptr, ptr }
%union.anon.4 = type { %struct.QTailQLink }
%union.anon.5 = type { %struct.QTailQLink }
%struct.QemuMutex = type { %union.pthread_mutex_t, i8 }
%union.pthread_mutex_t = type { %struct.__pthread_mutex_s }
%struct.__pthread_mutex_s = type { i32, i32, i32, i32, i32, i16, i16, %struct.__pthread_internal_list }
%struct.__pthread_internal_list = type { ptr, ptr }
%struct.anon.6 = type { ptr }
%struct.PCIExpressDevice = type { i8, i8, i8, i16, %struct.PCIEAERLog, i16, i16, i16, %struct.PCIESriovPF, %struct.PCIESriovVF }
%struct.PCIEAERLog = type { i16, i16, ptr }
%struct.PCIESriovPF = type { i16, [7 x i8], ptr, ptr }
%struct.PCIESriovVF = type { ptr, i16 }
%struct.DOECap = type { ptr, i16, %struct.anon.7, %struct.anon.8, %struct.anon.9, ptr, ptr, i32, i32, i32, ptr, i16, i32 }
%struct.anon.7 = type { i8, i16 }
%struct.anon.8 = type { i8, i8, i8 }
%struct.anon.9 = type { i8, i8, i8, i8 }
%struct.VFIODevice = type { %struct.anon.10, %struct.anon.11, %struct.anon.12, ptr, ptr, ptr, ptr, ptr, i32, i32, i8, i8, i8, i8, i8, i32, i8, ptr, i32, i32, i32, ptr, ptr, i32, i32, i8, i8, i8, ptr, i32, ptr, ptr, %struct.anon.13 }
%struct.anon.10 = type { ptr, ptr }
%struct.anon.11 = type { ptr, ptr }
%struct.anon.12 = type { ptr, ptr }
%struct.anon.13 = type { ptr, ptr }
%struct.VFIOINTx = type { i8, i8, i8, %struct.EventNotifier, %struct.EventNotifier, %struct.PCIINTxRoute, i32, ptr }
%struct.PCIINTxRoute = type { i32, i32 }
%struct.VFIOBAR = type { %struct.VFIORegion, ptr, i64, i8, i8, i8, %struct.anon.14 }
%struct.VFIORegion = type { ptr, i64, ptr, i64, i32, i32, ptr, i8 }
%struct.anon.14 = type { ptr }
%struct.PCIHostDeviceAddress = type { i32, i32, i32, i32 }
%struct.QemuUUID = type { %union.anon.15 }
%union.anon.15 = type { %struct.anon.16 }
%struct.anon.16 = type { i32, i16, i16, i8, i8, [6 x i8] }
%struct.EventNotifier = type { i32, i32, i8 }
%struct.Notifier = type { ptr, %struct.anon.17 }
%struct.anon.17 = type { ptr, ptr }

@.str.7 = private unnamed_addr constant [10 x i8] c"vfio %s: \00", align 1
@__const.vfio_register_req_notifier.irq_info = private unnamed_addr constant %struct.vfio_irq_info { i32 16, i32 0, i32 4, i32 0 }, align 4
@.str.223 = private unnamed_addr constant [55 x i8] c"vfio: Unable to init event notifier for device request\00", align 1

; Function Attrs: nounwind sspstrong uwtable
define internal void @vfio_register_req_notifier(ptr noundef %0) #0 {
  %2 = alloca ptr, align 8
  %3 = alloca %struct.vfio_irq_info, align 4
  %4 = alloca ptr, align 8
  %5 = alloca i32, align 4
  %6 = alloca i32, align 4
  store ptr %0, ptr %2, align 8
  call void @llvm.lifetime.start.p0(i64 16, ptr %3) #19
  call void @llvm.memcpy.p0.p0.i64(ptr align 4 %3, ptr align 4 @__const.vfio_register_req_notifier.irq_info, i64 16, i1 false)
  call void @llvm.lifetime.start.p0(i64 8, ptr %4) #19
  store ptr null, ptr %4, align 8
  call void @llvm.lifetime.start.p0(i64 4, ptr %5) #19
  store i32 0, ptr %5, align 4, !annotation !4
  %7 = load ptr, ptr %2, align 8
  %8 = getelementptr inbounds nuw %struct.VFIOPCIDevice, ptr %7, i32 0, i32 26
  %9 = load i32, ptr %8, align 8
  %10 = and i32 %9, 2
  %11 = icmp ne i32 %10, 0
  br i1 %11, label %13, label %12

12:                                               ; preds = %1
  store i32 1, ptr %6, align 4
  br label %55

13:                                               ; preds = %1
  %14 = load ptr, ptr %2, align 8
  %15 = getelementptr inbounds nuw %struct.VFIOPCIDevice, ptr %14, i32 0, i32 1
  %16 = getelementptr inbounds nuw %struct.VFIODevice, ptr %15, i32 0, i32 8
  %17 = load i32, ptr %16, align 8
  %18 = call i32 (i32, i64, ...) @ioctl(i32 noundef %17, i64 noundef 15213, ptr noundef %3) #19
  %19 = icmp slt i32 %18, 0
  br i1 %19, label %24, label %20

20:                                               ; preds = %13
  %21 = getelementptr inbounds nuw %struct.vfio_irq_info, ptr %3, i32 0, i32 3
  %22 = load i32, ptr %21, align 4
  %23 = icmp ult i32 %22, 1
  br i1 %23, label %24, label %25

24:                                               ; preds = %20, %13
  store i32 1, ptr %6, align 4
  br label %55

25:                                               ; preds = %20
  %26 = load ptr, ptr %2, align 8
  %27 = getelementptr inbounds nuw %struct.VFIOPCIDevice, ptr %26, i32 0, i32 20
  %28 = call i32 @event_notifier_init(ptr noundef %27, i32 noundef 0)
  %29 = icmp ne i32 %28, 0
  br i1 %29, label %30, label %31

30:                                               ; preds = %25
  call void (ptr, ...) @error_report(ptr noundef @.str.223)
  store i32 1, ptr %6, align 4
  br label %55

31:                                               ; preds = %25
  %32 = load ptr, ptr %2, align 8
  %33 = getelementptr inbounds nuw %struct.VFIOPCIDevice, ptr %32, i32 0, i32 20
  %34 = call i32 @event_notifier_get_fd(ptr noundef %33)
  store i32 %34, ptr %5, align 4
  %35 = load i32, ptr %5, align 4
  %36 = load ptr, ptr %2, align 8
  call void @qemu_set_fd_handler(i32 noundef %35, ptr noundef @vfio_req_notifier_handler, ptr noundef null, ptr noundef %36)
  %37 = load ptr, ptr %2, align 8
  %38 = getelementptr inbounds nuw %struct.VFIOPCIDevice, ptr %37, i32 0, i32 1
  %39 = load i32, ptr %5, align 4
  %40 = call zeroext i1 @vfio_set_irq_signaling(ptr noundef %38, i32 noundef 4, i32 noundef 0, i32 noundef 32, i32 noundef %39, ptr noundef %4)
  br i1 %40, label %51, label %41

41:                                               ; preds = %31
  %42 = load ptr, ptr %4, align 8
  %43 = load ptr, ptr %2, align 8
  %44 = getelementptr inbounds nuw %struct.VFIOPCIDevice, ptr %43, i32 0, i32 1
  %45 = getelementptr inbounds nuw %struct.VFIODevice, ptr %44, i32 0, i32 6
  %46 = load ptr, ptr %45, align 8
  call void (ptr, ptr, ...) @error_reportf_err(ptr noundef %42, ptr noundef @.str.7, ptr noundef %46)
  %47 = load i32, ptr %5, align 4
  %48 = load ptr, ptr %2, align 8
  call void @qemu_set_fd_handler(i32 noundef %47, ptr noundef null, ptr noundef null, ptr noundef %48)
  %49 = load ptr, ptr %2, align 8
  %50 = getelementptr inbounds nuw %struct.VFIOPCIDevice, ptr %49, i32 0, i32 20
  call void @event_notifier_cleanup(ptr noundef %50)
  br label %54

51:                                               ; preds = %31
  %52 = load ptr, ptr %2, align 8
  %53 = getelementptr inbounds nuw %struct.VFIOPCIDevice, ptr %52, i32 0, i32 36
  store i8 1, ptr %53, align 1
  br label %54

54:                                               ; preds = %51, %41
  store i32 0, ptr %6, align 4
  br label %55

55:                                               ; preds = %54, %30, %24, %12
  call void @llvm.lifetime.end.p0(i64 4, ptr %5) #19
  call void @llvm.lifetime.end.p0(i64 8, ptr %4) #19
  call void @llvm.lifetime.end.p0(i64 16, ptr %3) #19
  %56 = load i32, ptr %6, align 4
  switch i32 %56, label %58 [
    i32 0, label %57
    i32 1, label %57
  ]

57:                                               ; preds = %55, %55
  ret void

58:                                               ; preds = %55
  unreachable
}