; Function Attrs: nounwind sspstrong uwtable
define internal fastcc void @vfio_register_req_notifier(ptr noundef %0) unnamed_addr #0 {
  %2 = alloca %struct.vfio_irq_info, align 4
  %3 = alloca ptr, align 8
  call void @llvm.lifetime.start.p0(i64 16, ptr nonnull %2) #26
  call void @llvm.memcpy.p0.p0.i64(ptr noundef nonnull align 4 dereferenceable(16) %2, ptr noundef nonnull align 4 dereferenceable(16) @__const.vfio_register_req_notifier.irq_info, i64 16, i1 false)
  call void @llvm.lifetime.start.p0(i64 8, ptr nonnull %3) #26
  store ptr null, ptr %3, align 8
  %4 = getelementptr inbounds nuw i8, ptr %0, i64 3720
  %5 = load i32, ptr %4, align 8
  %6 = and i32 %5, 2
  %.not = icmp eq i32 %6, 0
  br i1 %.not, label %29, label %7

7:                                                ; preds = %1
  %8 = getelementptr inbounds nuw i8, ptr %0, i64 2752
  %9 = getelementptr inbounds nuw i8, ptr %0, i64 2840
  %10 = load i32, ptr %9, align 8
  %11 = call i32 (i32, i64, ...) @ioctl(i32 noundef %10, i64 noundef 15213, ptr noundef nonnull %2) #26
  %12 = icmp slt i32 %11, 0
  %13 = getelementptr inbounds nuw i8, ptr %2, i64 12
  %14 = load i32, ptr %13, align 4
  %15 = icmp eq i32 %14, 0
  %or.cond = select i1 %12, i1 true, i1 %15
  br i1 %or.cond, label %29, label %16

16:                                               ; preds = %7
  %17 = getelementptr inbounds nuw i8, ptr %0, i64 3684
  %18 = call i32 @event_notifier_init(ptr noundef nonnull %17, i32 noundef 0) #26
  %.not14 = icmp eq i32 %18, 0
  br i1 %.not14, label %20, label %19

19:                                               ; preds = %16
  call void (ptr, ...) @error_report(ptr noundef nonnull @.str.223) #26
  br label %29

20:                                               ; preds = %16
  %21 = call i32 @event_notifier_get_fd(ptr noundef nonnull %17) #26
  call void @qemu_set_fd_handler(i32 noundef %21, ptr noundef nonnull @vfio_req_notifier_handler, ptr noundef null, ptr noundef nonnull %0) #26
  %22 = call zeroext i1 @vfio_set_irq_signaling(ptr noundef nonnull %8, i32 noundef 4, i32 noundef 0, i32 noundef 32, i32 noundef %21, ptr noundef nonnull %3) #26
  br i1 %22, label %27, label %23

23:                                               ; preds = %20
  %24 = load ptr, ptr %3, align 8
  %25 = getelementptr inbounds nuw i8, ptr %0, i64 2824
  %26 = load ptr, ptr %25, align 8
  call void (ptr, ptr, ...) @error_reportf_err(ptr noundef %24, ptr noundef nonnull @.str.7, ptr noundef %26) #26
  call void @qemu_set_fd_handler(i32 noundef %21, ptr noundef null, ptr noundef null, ptr noundef nonnull %0) #26
  call void @event_notifier_cleanup(ptr noundef nonnull %17) #26
  br label %29

27:                                               ; preds = %20
  %28 = getelementptr inbounds nuw i8, ptr %0, i64 3751
  store i8 1, ptr %28, align 1
  br label %29

29:                                               ; preds = %23, %27, %7, %1, %19
  call void @llvm.lifetime.end.p0(i64 8, ptr nonnull %3) #26
  call void @llvm.lifetime.end.p0(i64 16, ptr nonnull %2) #26
  ret void
}